Certificate:
    Data:
        Version: 3 (0x2)
        Serial Number: 1 (0x1)
    Signature Algorithm: sha256WithRSAEncryption
        Issuer: DC=com, DC=netbraintech, O=NetbrainTech Com Inc., OU=NetbrainTech Com Inc. Root CA, CN=NetbrainTech Com Inc. Root CA
        Validity
            Not Before: Sep 26 09:12:37 2017 GMT
            Not After : Sep 26 09:12:37 2027 GMT
        Subject: DC=com, DC=netbraintech, O=NetbrainTech Com Inc., OU=NetbrainTech Com Inc. Root CA, CN=NetbrainTech Com Inc. Root CA
        Subject Public Key Info:
            Public Key Algorithm: rsaEncryption
                Public-Key: (2048 bit)
                Modulus:
                    00:a9:52:77:5b:14:74:3a:ba:33:0f:f4:0b:cf:dd:
                    5c:90:8f:5c:15:ac:b5:be:24:5f:cc:23:0d:d6:93:
                    ae:b5:08:7a:50:14:40:04:67:d7:33:fd:81:f6:db:
                    4d:dc:33:24:bd:da:02:04:30:77:df:fb:b1:ec:b2:
                    34:da:c0:4c:a3:c9:fe:4c:52:c7:c5:b5:e7:f5:c7:
                    d9:8b:77:c4:5f:16:f4:ed:31:05:71:1b:f5:58:44:
                    88:8e:04:59:1b:65:35:5e:b3:44:7f:6c:83:b3:18:
                    cf:90:53:18:6b:d3:8e:af:d0:ad:b1:19:ed:21:88:
                    52:86:12:ba:ef:f6:c8:e7:50:2c:99:11:5c:23:9a:
                    f1:38:b6:95:12:73:fa:16:75:29:48:ca:04:31:da:
                    44:33:e0:99:d0:1d:12:34:46:4e:f7:17:78:02:b6:
                    3b:06:08:90:3e:78:d0:7e:8f:ca:36:cf:ec:16:48:
                    be:2b:c9:48:d5:06:70:f2:e2:f5:b0:da:95:b6:61:
                    f5:d2:95:f3:8b:6c:fb:35:60:cb:24:ee:bc:1f:35:
                    0d:21:8d:b0:7e:bb:74:f2:a1:5c:18:10:06:97:e5:
                    6f:e0:3d:3d:13:08:63:85:e0:6d:91:de:dc:c6:05:
                    63:d4:d3:cb:49:ab:82:02:03:05:54:bb:d0:4d:48:
                    47:2f
                Exponent: 65537 (0x10001)
        X509v3 extensions:
            X509v3 Key Usage: critical
                Certificate Sign, CRL Sign
            X509v3 Basic Constraints: critical
                CA:TRUE
            X509v3 Subject Key Identifier: 
                88:75:D0:48:0A:30:10:69:F7:26:E3:71:54:25:F8:56:F3:D4:4F:1D
            X509v3 Authority Key Identifier: 
                keyid:88:75:D0:48:0A:30:10:69:F7:26:E3:71:54:25:F8:56:F3:D4:4F:1D

    Signature Algorithm: sha256WithRSAEncryption
         4b:f1:8e:97:48:73:aa:30:7c:25:e5:6c:d5:51:0a:d3:59:ef:
         6a:20:bd:b4:0d:3b:8d:90:d5:2f:29:09:0a:fd:e7:54:d5:c4:
         6b:c4:30:9a:e9:08:6a:96:2e:d7:62:30:c8:e6:53:df:9e:49:
         92:ae:45:92:a8:6a:c5:7c:89:4d:7a:8a:8d:21:55:87:5e:e8:
         a2:ba:6e:be:3b:ff:eb:99:71:99:2e:f6:a3:7d:2c:c4:26:2b:
         a5:cc:97:9d:60:8a:4b:3a:2f:0b:2d:0f:7f:7e:98:f8:93:85:
         2e:ae:5a:64:a0:1e:51:3b:02:68:f7:b7:1f:df:48:1d:5c:8f:
         ca:df:6c:79:f1:01:b1:4f:28:88:61:e4:0c:93:1c:65:70:2e:
         cf:96:c3:d3:58:fc:11:74:24:c0:e4:08:35:d9:70:b0:bc:ce:
         ba:a1:71:8f:d2:d9:4d:8b:d2:19:38:ad:e1:7a:38:15:a2:06:
         3c:03:c6:68:a0:05:7f:28:e2:9d:32:51:18:82:20:a2:c3:53:
         47:47:b0:1f:bd:dc:a8:79:60:0e:cd:41:b5:fd:a9:af:0a:0c:
         94:1f:4d:64:98:95:0e:18:fa:87:49:c6:ee:8f:d7:49:4c:15:
         99:b1:9a:5c:cd:76:74:22:b1:0c:47:cb:eb:07:ba:92:93:41:
         d2:78:fa:33
-----BEGIN CERTIFICATE-----
MIIEJjCCAw6gAwIBAgIBATANBgkqhkiG9w0BAQsFADCBozETMBEGCgmSJomT8ixk
ARkWA2NvbTEcMBoGCgmSJomT8ixkARkWDG5ldGJyYWludGVjaDEeMBwGA1UECgwV
TmV0YnJhaW5UZWNoIENvbSBJbmMuMSYwJAYDVQQLDB1OZXRicmFpblRlY2ggQ29t
IEluYy4gUm9vdCBDQTEmMCQGA1UEAwwdTmV0YnJhaW5UZWNoIENvbSBJbmMuIFJv
b3QgQ0EwHhcNMTcwOTI2MDkxMjM3WhcNMjcwOTI2MDkxMjM3WjCBozETMBEGCgmS
JomT8ixkARkWA2NvbTEcMBoGCgmSJomT8ixkARkWDG5ldGJyYWludGVjaDEeMBwG
A1UECgwVTmV0YnJhaW5UZWNoIENvbSBJbmMuMSYwJAYDVQQLDB1OZXRicmFpblRl
Y2ggQ29tIEluYy4gUm9vdCBDQTEmMCQGA1UEAwwdTmV0YnJhaW5UZWNoIENvbSBJ
bmMuIFJvb3QgQ0EwggEiMA0GCSqGSIb3DQEBAQUAA4IBDwAwggEKAoIBAQCpUndb
FHQ6ujMP9AvP3VyQj1wVrLW+JF/MIw3Wk661CHpQFEAEZ9cz/YH2203cMyS92gIE
MHff+7HssjTawEyjyf5MUsfFtef1x9mLd8RfFvTtMQVxG/VYRIiOBFkbZTVes0R/
bIOzGM+QUxhr046v0K2xGe0hiFKGErrv9sjnUCyZEVwjmvE4tpUSc/oWdSlIygQx
2kQz4JnQHRI0Rk73F3gCtjsGCJA+eNB+j8o2z+wWSL4ryUjVBnDy4vWw2pW2YfXS
lfOLbPs1YMsk7rwfNQ0hjbB+u3TyoVwYEAaX5W/gPT0TCGOF4G2R3tzGBWPU08tJ
q4ICAwVUu9BNSEcvAgMBAAGjYzBhMA4GA1UdDwEB/wQEAwIBBjAPBgNVHRMBAf8E
BTADAQH/MB0GA1UdDgQWBBSIddBICjAQafcm43FUJfhW89RPHTAfBgNVHSMEGDAW
gBSIddBICjAQafcm43FUJfhW89RPHTANBgkqhkiG9w0BAQsFAAOCAQEAS/GOl0hz
qjB8JeVs1VEK01nvaiC9tA07jZDVLykJCv3nVNXEa8QwmukIapYu12IwyOZT355J
kq5FkqhqxXyJTXqKjSFVh17oorpuvjv/65lxmS72o30sxCYrpcyXnWCKSzovCy0P
f36Y+JOFLq5aZKAeUTsCaPe3H99IHVyPyt9sefEBsU8oiGHkDJMcZXAuz5bD01j8
EXQkwOQINdlwsLzOuqFxj9LZTYvSGTit4Xo4FaIGPAPGaKAFfyjinTJRGIIgosNT
R0ewH73cqHlgDs1Btf2prwoMlB9NZJiVDhj6h0nG7o/XSUwVmbGaXM12dCKxDEfL
6we6kpNB0nj6Mw==
-----END CERTIFICATE-----
